; Function Attrs: null_pointer_is_valid sspstrong uwtable
define internal i32 @dissect_ldap_T_extensibleMatch(i1 noundef zeroext %0, ptr noundef %1, i32 noundef %2, ptr noundef %3, ptr noundef %4, i32 noundef %5) #0 {
  store ptr null, ptr @attr_type, align 8
  store ptr null, ptr @matching_rule_string, align 8
  store ptr null, ptr @ldapvalue_string, align 8
  store i8 0, ptr @matching_rule_dnattr, align 1
  %7 = load i32, ptr @ett_ldap_MatchingRuleAssertion, align 4
  %8 = tail call i32 @dissect_ber_sequence(i1 noundef zeroext %0, ptr noundef %3, ptr noundef %4, ptr noundef %1, i32 noundef %2, ptr noundef nonnull @MatchingRuleAssertion_sequence, i32 noundef %5, i32 noundef %7)
  %9 = getelementptr inbounds nuw i8, ptr %3, i64 16
  %10 = load ptr, ptr %9, align 8
  %11 = getelementptr inbounds nuw i8, ptr %10, i64 408
  %12 = load ptr, ptr %11, align 8
  %13 = load ptr, ptr @attr_type, align 8
  %.not = icmp eq ptr %13, null
  %14 = select i1 %.not, ptr @.str.852, ptr %13
  %15 = load i8, ptr @matching_rule_dnattr, align 1, !range !6, !noundef !7
  %16 = trunc nuw i8 %15 to i1
  %17 = select i1 %16, ptr @.str.922, ptr @.str.852
  %18 = load ptr, ptr @matching_rule_string, align 8
  %.not7 = icmp eq ptr %18, null
  %19 = select i1 %.not7, ptr @.str.852, ptr %18
  %20 = select i1 %.not7, ptr @.str.852, ptr @.str.923
  %21 = load ptr, ptr @ldapvalue_string, align 8
  %.not8 = icmp eq ptr %21, null
  %22 = select i1 %.not8, ptr @.str.892, ptr %21
  %23 = tail call noalias ptr (ptr, ptr, ...) @wmem_strdup_printf(ptr noundef %12, ptr noundef nonnull @.str.921, ptr noundef nonnull %14, ptr noundef nonnull %17, ptr noundef nonnull %19, ptr noundef nonnull %20, ptr noundef nonnull %22)
  store ptr %23, ptr @Filter_string, align 8
  ret i32 %8
}